(lp0
S'poi'
p1
aS'bonus'
p2
aS'deferred_income'
p3
aS'exercised_stock_options'
p4
aS'expenses'
p5
aS'other'
p6
aS'restricted_stock'
p7
aS'salary'
p8
aS'shared_receipt_with_poi'
p9
aS'total_payments'
p10
aS'total_stock_value'
p11
aS'prop_from_poi'
p12
aS'prop_to_poi'
p13
a.
